; Function Attrs: nounwind uwtable
define i32 @mm_map_lock() local_unnamed_addr #0 {
  %1 = tail call ptr @nxsched_self() #6
  %2 = getelementptr inbounds nuw i8, ptr %1, i64 16
  %3 = load ptr, ptr %2, align 16
  %4 = icmp eq ptr %3, null
  br i1 %4, label %8, label %5

5:                                                ; preds = %0
  %6 = getelementptr inbounds nuw i8, ptr %3, i64 968
  %7 = tail call i32 @nxrmutex_lock(ptr noundef nonnull %6) #6
  br label %8

8:                                                ; preds = %0, %5
  %.0 = phi i32 [ %7, %5 ], [ -22, %0 ]
  ret i32 %.0
}